target datalayout = "e-m:e-p270:32:32-p271:32:32-p272:64:64-i64:64-i128:128-f80:128-n8:16:32:64-S128"
target triple = "x86_64-pc-linux-gnu"

%struct.SoftFloat = type { i32, i32 }

; Function Attrs: nounwind willreturn memory(none) uwtable
define internal i64 @av_normalize_sf(i64 %0) #5 {
  %2 = alloca %struct.SoftFloat, align 4
  %3 = alloca %struct.SoftFloat, align 4
  store i64 %0, ptr %3, align 4
  %4 = getelementptr inbounds nuw %struct.SoftFloat, ptr %3, i32 0, i32 0
  %5 = load i32, ptr %4, align 4, !tbaa !43
  %6 = icmp ne i32 %5, 0
  br i1 %6, label %7, label %30

7:                                                ; preds = %1
  br label %8

8:                                                ; preds = %13, %7
  %9 = getelementptr inbounds nuw %struct.SoftFloat, ptr %3, i32 0, i32 0
  %10 = load i32, ptr %9, align 4, !tbaa !43
  %11 = add i32 %10, 536870911
  %12 = icmp ult i32 %11, 1073741823
  br i1 %12, label %13, label %22

13:                                               ; preds = %8
  %14 = getelementptr inbounds nuw %struct.SoftFloat, ptr %3, i32 0, i32 0
  %15 = load i32, ptr %14, align 4, !tbaa !43
  %16 = getelementptr inbounds nuw %struct.SoftFloat, ptr %3, i32 0, i32 0
  %17 = load i32, ptr %16, align 4, !tbaa !43
  %18 = add nsw i32 %17, %15
  store i32 %18, ptr %16, align 4, !tbaa !43
  %19 = getelementptr inbounds nuw %struct.SoftFloat, ptr %3, i32 0, i32 1
  %20 = load i32, ptr %19, align 4, !tbaa !41
  %21 = sub nsw i32 %20, 1
  store i32 %21, ptr %19, align 4, !tbaa !41
  br label %8, !llvm.loop !45

22:                                               ; preds = %8
  %23 = getelementptr inbounds nuw %struct.SoftFloat, ptr %3, i32 0, i32 1
  %24 = load i32, ptr %23, align 4, !tbaa !41
  %25 = icmp slt i32 %24, -149
  br i1 %25, label %26, label %29

26:                                               ; preds = %22
  %27 = getelementptr inbounds nuw %struct.SoftFloat, ptr %3, i32 0, i32 1
  store i32 -149, ptr %27, align 4, !tbaa !41
  %28 = getelementptr inbounds nuw %struct.SoftFloat, ptr %3, i32 0, i32 0
  store i32 0, ptr %28, align 4, !tbaa !43
  br label %29

29:                                               ; preds = %26, %22
  br label %32

30:                                               ; preds = %1
  %31 = getelementptr inbounds nuw %struct.SoftFloat, ptr %3, i32 0, i32 1
  store i32 -149, ptr %31, align 4, !tbaa !41
  br label %32

32:                                               ; preds = %30, %29
  call void @llvm.memcpy.p0.p0.i64(ptr align 4 %2, ptr align 4 %3, i64 8, i1 false), !tbaa.struct !32
  %33 = load i64, ptr %2, align 4
  ret i64 %33
}

; Function Attrs: inlinehint nounwind willreturn memory(none) uwtable
define internal i64 @av_normalize1_sf(i64 %0) #3 {
  %2 = alloca %struct.SoftFloat, align 4
  %3 = alloca %struct.SoftFloat, align 4
  store i64 %0, ptr %3, align 4
  %4 = getelementptr inbounds nuw %struct.SoftFloat, ptr %3, i32 0, i32 0
  %5 = load i32, ptr %4, align 4, !tbaa !43
  %6 = add i32 %5, 1073741824
  %7 = icmp sle i32 %6, 0
  br i1 %7, label %8, label %15

8:                                                ; preds = %1
  %9 = getelementptr inbounds nuw %struct.SoftFloat, ptr %3, i32 0, i32 1
  %10 = load i32, ptr %9, align 4, !tbaa !41
  %11 = add nsw i32 %10, 1
  store i32 %11, ptr %9, align 4, !tbaa !41
  %12 = getelementptr inbounds nuw %struct.SoftFloat, ptr %3, i32 0, i32 0
  %13 = load i32, ptr %12, align 4, !tbaa !43
  %14 = ashr i32 %13, 1
  store i32 %14, ptr %12, align 4, !tbaa !43
  br label %15

15:                                               ; preds = %8, %1
  call void @llvm.memcpy.p0.p0.i64(ptr align 4 %2, ptr align 4 %3, i64 8, i1 false), !tbaa.struct !32
  %16 = load i64, ptr %2, align 4
  ret i64 %16
}

; Function Attrs: inlinehint nounwind willreturn memory(none) uwtable
define internal i64 @av_int2sf(i32 noundef %0, i32 noundef %1) #3 {
  %3 = alloca %struct.SoftFloat, align 4
  %4 = alloca i32, align 4
  %5 = alloca i32, align 4
  %6 = alloca i32, align 4
  %7 = alloca %struct.SoftFloat, align 4
  %8 = alloca %struct.SoftFloat, align 4
  store i32 %0, ptr %4, align 4, !tbaa !23
  store i32 %1, ptr %5, align 4, !tbaa !23
  call void @llvm.lifetime.start.p0(i64 4, ptr %6) #8
  store i32 0, ptr %6, align 4, !tbaa !23
  %9 = load i32, ptr %4, align 4, !tbaa !23
  %10 = icmp sle i32 %9, -2147483647
  br i1 %10, label %11, label %14

11:                                               ; preds = %2
  store i32 1, ptr %6, align 4, !tbaa !23
  %12 = load i32, ptr %4, align 4, !tbaa !23
  %13 = ashr i32 %12, 1
  store i32 %13, ptr %4, align 4, !tbaa !23
  br label %14

14:                                               ; preds = %11, %2
  %15 = getelementptr inbounds nuw %struct.SoftFloat, ptr %8, i32 0, i32 0
  %16 = load i32, ptr %4, align 4, !tbaa !23
  store i32 %16, ptr %15, align 4, !tbaa !43
  %17 = getelementptr inbounds nuw %struct.SoftFloat, ptr %8, i32 0, i32 1
  %18 = load i32, ptr %5, align 4, !tbaa !23
  %19 = sub nsw i32 30, %18
  %20 = load i32, ptr %6, align 4, !tbaa !23
  %21 = add nsw i32 %19, %20
  store i32 %21, ptr %17, align 4, !tbaa !41
  %22 = load i64, ptr %8, align 4
  %23 = call i64 @av_normalize1_sf(i64 %22) #9
  store i64 %23, ptr %7, align 4
  %24 = load i64, ptr %7, align 4
  %25 = call i64 @av_normalize_sf(i64 %24) #9
  store i64 %25, ptr %3, align 4
  call void @llvm.lifetime.end.p0(i64 4, ptr %6) #8
  %26 = load i64, ptr %3, align 4
  ret i64 %26
}

; Function Attrs: nounwind uwtable
define internal i64 @sbr_sum_square_c(ptr noundef %0, i32 noundef %1) #1 {
  %3 = alloca %struct.SoftFloat, align 4
  %4 = alloca ptr, align 8
  %5 = alloca i32, align 4
  %6 = alloca i64, align 8
  %7 = alloca i64, align 8
  %8 = alloca i64, align 8
  %9 = alloca i64, align 8
  %10 = alloca i64, align 8
  %11 = alloca i64, align 8
  %12 = alloca i32, align 4
  %13 = alloca i32, align 4
  %14 = alloca i32, align 4
  %15 = alloca i32, align 4
  %16 = alloca %struct.SoftFloat, align 4
  store ptr %0, ptr %4, align 8, !tbaa !21
  store i32 %1, ptr %5, align 4, !tbaa !23
  call void @llvm.lifetime.start.p0(i64 8, ptr %6) #8
  store i64 0, ptr %6, align 8, !tbaa !27
  call void @llvm.lifetime.start.p0(i64 8, ptr %7) #8
  call void @llvm.lifetime.start.p0(i64 8, ptr %8) #8
  store i64 0, ptr %8, align 8, !tbaa !27
  call void @llvm.lifetime.start.p0(i64 8, ptr %9) #8
  store i64 0, ptr %9, align 8, !tbaa !27
  call void @llvm.lifetime.start.p0(i64 8, ptr %10) #8
  store i64 0, ptr %10, align 8, !tbaa !27
  call void @llvm.lifetime.start.p0(i64 8, ptr %11) #8
  store i64 0, ptr %11, align 8, !tbaa !27
  call void @llvm.lifetime.start.p0(i64 4, ptr %12) #8
  call void @llvm.lifetime.start.p0(i64 4, ptr %13) #8
  call void @llvm.lifetime.start.p0(i64 4, ptr %14) #8
  call void @llvm.lifetime.start.p0(i64 4, ptr %15) #8
  store i32 0, ptr %13, align 4, !tbaa !23
  store i32 0, ptr %12, align 4, !tbaa !23
  br label %17

17:                                               ; preds = %164, %2
  %18 = load i32, ptr %12, align 4, !tbaa !23
  %19 = load i32, ptr %5, align 4, !tbaa !23
  %20 = icmp slt i32 %18, %19
  br i1 %20, label %21, label %167

21:                                               ; preds = %17
  %22 = load ptr, ptr %4, align 8, !tbaa !21
  %23 = load i32, ptr %12, align 4, !tbaa !23
  %24 = add nsw i32 %23, 0
  %25 = sext i32 %24 to i64
  %26 = getelementptr inbounds [2 x i32], ptr %22, i64 %25
  %27 = getelementptr inbounds [2 x i32], ptr %26, i64 0, i64 0
  %28 = load i32, ptr %27, align 4, !tbaa !23
  %29 = sext i32 %28 to i64
  %30 = load ptr, ptr %4, align 8, !tbaa !21
  %31 = load i32, ptr %12, align 4, !tbaa !23
  %32 = add nsw i32 %31, 0
  %33 = sext i32 %32 to i64
  %34 = getelementptr inbounds [2 x i32], ptr %30, i64 %33
  %35 = getelementptr inbounds [2 x i32], ptr %34, i64 0, i64 0
  %36 = load i32, ptr %35, align 4, !tbaa !23
  %37 = sext i32 %36 to i64
  %38 = mul nsw i64 %29, %37
  %39 = load i64, ptr %8, align 8, !tbaa !27
  %40 = add i64 %39, %38
  store i64 %40, ptr %8, align 8, !tbaa !27
  %41 = load ptr, ptr %4, align 8, !tbaa !21
  %42 = load i32, ptr %12, align 4, !tbaa !23
  %43 = add nsw i32 %42, 0
  %44 = sext i32 %43 to i64
  %45 = getelementptr inbounds [2 x i32], ptr %41, i64 %44
  %46 = getelementptr inbounds [2 x i32], ptr %45, i64 0, i64 1
  %47 = load i32, ptr %46, align 4, !tbaa !23
  %48 = sext i32 %47 to i64
  %49 = load ptr, ptr %4, align 8, !tbaa !21
  %50 = load i32, ptr %12, align 4, !tbaa !23
  %51 = add nsw i32 %50, 0
  %52 = sext i32 %51 to i64
  %53 = getelementptr inbounds [2 x i32], ptr %49, i64 %52
  %54 = getelementptr inbounds [2 x i32], ptr %53, i64 0, i64 1
  %55 = load i32, ptr %54, align 4, !tbaa !23
  %56 = sext i32 %55 to i64
  %57 = mul nsw i64 %48, %56
  %58 = load i64, ptr %9, align 8, !tbaa !27
  %59 = add i64 %58, %57
  store i64 %59, ptr %9, align 8, !tbaa !27
  %60 = load ptr, ptr %4, align 8, !tbaa !21
  %61 = load i32, ptr %12, align 4, !tbaa !23
  %62 = add nsw i32 %61, 1
  %63 = sext i32 %62 to i64
  %64 = getelementptr inbounds [2 x i32], ptr %60, i64 %63
  %65 = getelementptr inbounds [2 x i32], ptr %64, i64 0, i64 0
  %66 = load i32, ptr %65, align 4, !tbaa !23
  %67 = sext i32 %66 to i64
  %68 = load ptr, ptr %4, align 8, !tbaa !21
  %69 = load i32, ptr %12, align 4, !tbaa !23
  %70 = add nsw i32 %69, 1
  %71 = sext i32 %70 to i64
  %72 = getelementptr inbounds [2 x i32], ptr %68, i64 %71
  %73 = getelementptr inbounds [2 x i32], ptr %72, i64 0, i64 0
  %74 = load i32, ptr %73, align 4, !tbaa !23
  %75 = sext i32 %74 to i64
  %76 = mul nsw i64 %67, %75
  %77 = load i64, ptr %10, align 8, !tbaa !27
  %78 = add i64 %77, %76
  store i64 %78, ptr %10, align 8, !tbaa !27
  %79 = load ptr, ptr %4, align 8, !tbaa !21
  %80 = load i32, ptr %12, align 4, !tbaa !23
  %81 = add nsw i32 %80, 1
  %82 = sext i32 %81 to i64
  %83 = getelementptr inbounds [2 x i32], ptr %79, i64 %82
  %84 = getelementptr inbounds [2 x i32], ptr %83, i64 0, i64 1
  %85 = load i32, ptr %84, align 4, !tbaa !23
  %86 = sext i32 %85 to i64
  %87 = load ptr, ptr %4, align 8, !tbaa !21
  %88 = load i32, ptr %12, align 4, !tbaa !23
  %89 = add nsw i32 %88, 1
  %90 = sext i32 %89 to i64
  %91 = getelementptr inbounds [2 x i32], ptr %87, i64 %90
  %92 = getelementptr inbounds [2 x i32], ptr %91, i64 0, i64 1
  %93 = load i32, ptr %92, align 4, !tbaa !23
  %94 = sext i32 %93 to i64
  %95 = mul nsw i64 %86, %94
  %96 = load i64, ptr %11, align 8, !tbaa !27
  %97 = add i64 %96, %95
  store i64 %97, ptr %11, align 8, !tbaa !27
  %98 = load i64, ptr %8, align 8, !tbaa !27
  %99 = load i64, ptr %9, align 8, !tbaa !27
  %100 = or i64 %98, %99
  %101 = load i64, ptr %10, align 8, !tbaa !27
  %102 = or i64 %100, %101
  %103 = load i64, ptr %11, align 8, !tbaa !27
  %104 = or i64 %102, %103
  %105 = icmp ugt i64 %104, -4611686018427387905
  br i1 %105, label %111, label %106

106:                                              ; preds = %21
  %107 = load i32, ptr %12, align 4, !tbaa !23
  %108 = add nsw i32 %107, 2
  %109 = load i32, ptr %5, align 4, !tbaa !23
  %110 = icmp sge i32 %108, %109
  br i1 %110, label %111, label %163

111:                                              ; preds = %106, %21
  %112 = load i32, ptr %13, align 4, !tbaa !23
  %113 = load i64, ptr %8, align 8, !tbaa !27
  %114 = zext i32 %112 to i64
  %115 = lshr i64 %113, %114
  store i64 %115, ptr %8, align 8, !tbaa !27
  %116 = load i32, ptr %13, align 4, !tbaa !23
  %117 = load i64, ptr %9, align 8, !tbaa !27
  %118 = zext i32 %116 to i64
  %119 = lshr i64 %117, %118
  store i64 %119, ptr %9, align 8, !tbaa !27
  %120 = load i32, ptr %13, align 4, !tbaa !23
  %121 = load i64, ptr %10, align 8, !tbaa !27
  %122 = zext i32 %120 to i64
  %123 = lshr i64 %121, %122
  store i64 %123, ptr %10, align 8, !tbaa !27
  %124 = load i32, ptr %13, align 4, !tbaa !23
  %125 = load i64, ptr %11, align 8, !tbaa !27
  %126 = zext i32 %124 to i64
  %127 = lshr i64 %125, %126
  store i64 %127, ptr %11, align 8, !tbaa !27
  br label %128

128:                                              ; preds = %140, %111
  %129 = load i64, ptr %8, align 8, !tbaa !27
  %130 = load i64, ptr %9, align 8, !tbaa !27
  %131 = or i64 %129, %130
  %132 = load i64, ptr %10, align 8, !tbaa !27
  %133 = or i64 %131, %132
  %134 = load i64, ptr %11, align 8, !tbaa !27
  %135 = or i64 %133, %134
  %136 = load i64, ptr %6, align 8, !tbaa !27
  %137 = sub i64 -1, %136
  %138 = lshr i64 %137, 2
  %139 = icmp ugt i64 %135, %138
  br i1 %139, label %140, label %153

140:                                              ; preds = %128
  %141 = load i64, ptr %8, align 8, !tbaa !27
  %142 = lshr i64 %141, 1
  store i64 %142, ptr %8, align 8, !tbaa !27
  %143 = load i64, ptr %9, align 8, !tbaa !27
  %144 = lshr i64 %143, 1
  store i64 %144, ptr %9, align 8, !tbaa !27
  %145 = load i64, ptr %10, align 8, !tbaa !27
  %146 = lshr i64 %145, 1
  store i64 %146, ptr %10, align 8, !tbaa !27
  %147 = load i64, ptr %11, align 8, !tbaa !27
  %148 = lshr i64 %147, 1
  store i64 %148, ptr %11, align 8, !tbaa !27
  %149 = load i64, ptr %6, align 8, !tbaa !27
  %150 = lshr i64 %149, 1
  store i64 %150, ptr %6, align 8, !tbaa !27
  %151 = load i32, ptr %13, align 4, !tbaa !23
  %152 = add nsw i32 %151, 1
  store i32 %152, ptr %13, align 4, !tbaa !23
  br label %128, !llvm.loop !29

153:                                              ; preds = %128
  %154 = load i64, ptr %8, align 8, !tbaa !27
  %155 = load i64, ptr %9, align 8, !tbaa !27
  %156 = add i64 %154, %155
  %157 = load i64, ptr %10, align 8, !tbaa !27
  %158 = add i64 %156, %157
  %159 = load i64, ptr %11, align 8, !tbaa !27
  %160 = add i64 %158, %159
  %161 = load i64, ptr %6, align 8, !tbaa !27
  %162 = add i64 %161, %160
  store i64 %162, ptr %6, align 8, !tbaa !27
  store i64 0, ptr %11, align 8, !tbaa !27
  store i64 0, ptr %10, align 8, !tbaa !27
  store i64 0, ptr %9, align 8, !tbaa !27
  store i64 0, ptr %8, align 8, !tbaa !27
  br label %163

163:                                              ; preds = %153, %106
  br label %164

164:                                              ; preds = %163
  %165 = load i32, ptr %12, align 4, !tbaa !23
  %166 = add nsw i32 %165, 2
  store i32 %166, ptr %12, align 4, !tbaa !23
  br label %17, !llvm.loop !30

167:                                              ; preds = %17
  %168 = load i32, ptr %13, align 4, !tbaa !23
  %169 = sub nsw i32 15, %168
  store i32 %169, ptr %14, align 4, !tbaa !23
  %170 = load i64, ptr %6, align 8, !tbaa !27
  %171 = lshr i64 %170, 32
  %172 = trunc i64 %171 to i32
  store i32 %172, ptr %15, align 4, !tbaa !23
  %173 = load i32, ptr %15, align 4, !tbaa !23
  %174 = icmp ne i32 %173, 0
  br i1 %174, label %175, label %185

175:                                              ; preds = %167
  store i32 33, ptr %13, align 4, !tbaa !23
  br label %176

176:                                              ; preds = %179, %175
  %177 = load i32, ptr %15, align 4, !tbaa !23
  %178 = icmp ult i32 %177, -2147483648
  br i1 %178, label %179, label %184

179:                                              ; preds = %176
  %180 = load i32, ptr %15, align 4, !tbaa !23
  %181 = shl i32 %180, 1
  store i32 %181, ptr %15, align 4, !tbaa !23
  %182 = load i32, ptr %13, align 4, !tbaa !23
  %183 = add nsw i32 %182, -1
  store i32 %183, ptr %13, align 4, !tbaa !23
  br label %176, !llvm.loop !31

184:                                              ; preds = %176
  br label %186

185:                                              ; preds = %167
  store i32 1, ptr %13, align 4, !tbaa !23
  br label %186

186:                                              ; preds = %185, %184
  %187 = load i32, ptr %13, align 4, !tbaa !23
  %188 = sub nsw i32 %187, 1
  %189 = zext i32 %188 to i64
  %190 = shl i64 1, %189
  store i64 %190, ptr %7, align 8, !tbaa !27
  %191 = load i64, ptr %6, align 8, !tbaa !27
  %192 = load i64, ptr %7, align 8, !tbaa !27
  %193 = add i64 %191, %192
  %194 = load i32, ptr %13, align 4, !tbaa !23
  %195 = zext i32 %194 to i64
  %196 = lshr i64 %193, %195
  %197 = trunc i64 %196 to i32
  store i32 %197, ptr %15, align 4, !tbaa !23
  %198 = load i32, ptr %15, align 4, !tbaa !23
  %199 = lshr i32 %198, 1
  store i32 %199, ptr %15, align 4, !tbaa !23
  call void @llvm.lifetime.start.p0(i64 8, ptr %16) #8
  %200 = load i32, ptr %15, align 4, !tbaa !23
  %201 = load i32, ptr %14, align 4, !tbaa !23
  %202 = load i32, ptr %13, align 4, !tbaa !23
  %203 = sub nsw i32 %201, %202
  %204 = call i64 @av_int2sf(i32 noundef %200, i32 noundef %203) #9
  store i64 %204, ptr %16, align 4
  call void @llvm.memcpy.p0.p0.i64(ptr align 4 %3, ptr align 4 %16, i64 8, i1 false), !tbaa.struct !32
  call void @llvm.lifetime.end.p0(i64 8, ptr %16) #8
  call void @llvm.lifetime.end.p0(i64 4, ptr %15) #8
  call void @llvm.lifetime.end.p0(i64 4, ptr %14) #8
  call void @llvm.lifetime.end.p0(i64 4, ptr %13) #8
  call void @llvm.lifetime.end.p0(i64 4, ptr %12) #8
  call void @llvm.lifetime.end.p0(i64 8, ptr %11) #8
  call void @llvm.lifetime.end.p0(i64 8, ptr %10) #8
  call void @llvm.lifetime.end.p0(i64 8, ptr %9) #8
  call void @llvm.lifetime.end.p0(i64 8, ptr %8) #8
  call void @llvm.lifetime.end.p0(i64 8, ptr %7) #8
  call void @llvm.lifetime.end.p0(i64 8, ptr %6) #8
  %205 = load i64, ptr %3, align 4
  ret i64 %205
}