; Function Attrs: nofree norecurse nosync nounwind memory(argmem: read) uwtable
define internal range(i64 0, -2147483648) i64 @sbr_sum_square_c(ptr noundef readonly captures(none) %0, i32 noundef %1) #2 {
  %3 = icmp sgt i32 %1, 0
  br i1 %3, label %.lr.ph107.preheader, label %.loopexit

.lr.ph107.preheader:                              ; preds = %2
  %4 = zext nneg i32 %1 to i64
  br label %.lr.ph107

.lr.ph107:                                        ; preds = %.lr.ph107.preheader, %57
  %indvars.iv = phi i64 [ 0, %.lr.ph107.preheader ], [ %indvars.iv.next, %57 ]
  %.0105 = phi i64 [ 0, %.lr.ph107.preheader ], [ %.2, %57 ]
  %.068104 = phi i64 [ 0, %.lr.ph107.preheader ], [ %.270, %57 ]
  %.071103 = phi i32 [ 0, %.lr.ph107.preheader ], [ %.273, %57 ]
  %.075101 = phi i64 [ 0, %.lr.ph107.preheader ], [ %.277, %57 ]
  %.078100 = phi i64 [ 0, %.lr.ph107.preheader ], [ %.280, %57 ]
  %.08199 = phi i64 [ 0, %.lr.ph107.preheader ], [ %.283, %57 ]
  %5 = getelementptr inbounds nuw [2 x i32], ptr %0, i64 %indvars.iv
  %6 = load i32, ptr %5, align 4, !tbaa !19
  %7 = sext i32 %6 to i64
  %8 = mul nsw i64 %7, %7
  %9 = add i64 %8, %.068104
  %10 = getelementptr inbounds nuw i8, ptr %5, i64 4
  %11 = load i32, ptr %10, align 4, !tbaa !19
  %12 = sext i32 %11 to i64
  %13 = mul nsw i64 %12, %12
  %14 = add i64 %13, %.08199
  %15 = getelementptr inbounds nuw i8, ptr %5, i64 8
  %16 = load i32, ptr %15, align 4, !tbaa !19
  %17 = sext i32 %16 to i64
  %18 = mul nsw i64 %17, %17
  %19 = add i64 %18, %.078100
  %20 = getelementptr inbounds nuw i8, ptr %5, i64 12
  %21 = load i32, ptr %20, align 4, !tbaa !19
  %22 = sext i32 %21 to i64
  %23 = mul nsw i64 %22, %22
  %24 = add i64 %23, %.075101
  %25 = or i64 %14, %9
  %26 = or i64 %25, %19
  %27 = or i64 %26, %24
  %28 = icmp ult i64 %27, -4611686018427387904
  %indvars.iv.next = add nuw nsw i64 %indvars.iv, 2
  %.not86 = icmp samesign ult i64 %indvars.iv.next, %4
  %or.cond = select i1 %28, i1 %.not86, i1 false
  br i1 %or.cond, label %57, label %29

29:                                               ; preds = %.lr.ph107
  %30 = zext i32 %.071103 to i64
  %31 = lshr i64 %9, %30
  %32 = lshr i64 %14, %30
  %33 = lshr i64 %19, %30
  %34 = lshr i64 %24, %30
  %35 = or i64 %33, %32
  %36 = or i64 %35, %34
  %37 = or i64 %36, %31
  %38 = xor i64 %.0105, -1
  %39 = lshr i64 %38, 2
  %40 = icmp ugt i64 %37, %39
  br i1 %40, label %.lr.ph, label %._crit_edge

.lr.ph:                                           ; preds = %29, %.lr.ph
  %.193 = phi i64 [ %45, %.lr.ph ], [ %.0105, %29 ]
  %.16992 = phi i64 [ %41, %.lr.ph ], [ %31, %29 ]
  %.17291 = phi i32 [ %46, %.lr.ph ], [ %.071103, %29 ]
  %.17690 = phi i64 [ %44, %.lr.ph ], [ %34, %29 ]
  %.17989 = phi i64 [ %43, %.lr.ph ], [ %33, %29 ]
  %.18288 = phi i64 [ %42, %.lr.ph ], [ %32, %29 ]
  %41 = lshr i64 %.16992, 1
  %42 = lshr i64 %.18288, 1
  %43 = lshr i64 %.17989, 1
  %44 = lshr i64 %.17690, 1
  %45 = lshr i64 %.193, 1
  %46 = add nsw i32 %.17291, 1
  %47 = or i64 %43, %42
  %48 = or i64 %47, %44
  %49 = or i64 %48, %41
  %50 = lshr i64 %.193, 3
  %51 = xor i64 %50, 4611686018427387903
  %52 = icmp samesign ugt i64 %49, %51
  br i1 %52, label %.lr.ph, label %._crit_edge, !llvm.loop !23

._crit_edge:                                      ; preds = %.lr.ph, %29
  %.182.lcssa = phi i64 [ %32, %29 ], [ %42, %.lr.ph ]
  %.179.lcssa = phi i64 [ %33, %29 ], [ %43, %.lr.ph ]
  %.176.lcssa = phi i64 [ %34, %29 ], [ %44, %.lr.ph ]
  %.172.lcssa = phi i32 [ %.071103, %29 ], [ %46, %.lr.ph ]
  %.169.lcssa = phi i64 [ %31, %29 ], [ %41, %.lr.ph ]
  %.1.lcssa = phi i64 [ %.0105, %29 ], [ %45, %.lr.ph ]
  %53 = add i64 %.179.lcssa, %.182.lcssa
  %54 = add i64 %53, %.176.lcssa
  %55 = add i64 %54, %.169.lcssa
  %56 = add i64 %55, %.1.lcssa
  br label %57

57:                                               ; preds = %.lr.ph107, %._crit_edge
  %.283 = phi i64 [ 0, %._crit_edge ], [ %14, %.lr.ph107 ]
  %.280 = phi i64 [ 0, %._crit_edge ], [ %19, %.lr.ph107 ]
  %.277 = phi i64 [ 0, %._crit_edge ], [ %24, %.lr.ph107 ]
  %.273 = phi i32 [ %.172.lcssa, %._crit_edge ], [ %.071103, %.lr.ph107 ]
  %.270 = phi i64 [ 0, %._crit_edge ], [ %9, %.lr.ph107 ]
  %.2 = phi i64 [ %56, %._crit_edge ], [ %.0105, %.lr.ph107 ]
  br i1 %.not86, label %.lr.ph107, label %._crit_edge108, !llvm.loop !24

._crit_edge108:                                   ; preds = %57
  %58 = add i32 %.273, -15
  %.not = icmp ult i64 %.2, 4294967296
  br i1 %.not, label %.loopexit, label %59

59:                                               ; preds = %._crit_edge108
  %60 = icmp sgt i64 %.2, -1
  br i1 %60, label %.lr.ph114.preheader, label %.loopexit

.lr.ph114.preheader:                              ; preds = %59
  %61 = lshr i64 %.2, 32
  %62 = trunc nuw nsw i64 %61 to i32
  br label %.lr.ph114

.lr.ph114:                                        ; preds = %.lr.ph114.preheader, %.lr.ph114
  %.067112 = phi i32 [ %63, %.lr.ph114 ], [ %62, %.lr.ph114.preheader ]
  %.3111 = phi i32 [ %64, %.lr.ph114 ], [ 33, %.lr.ph114.preheader ]
  %63 = shl nuw i32 %.067112, 1
  %64 = add nsw i32 %.3111, -1
  %65 = icmp sgt i32 %63, -1
  br i1 %65, label %.lr.ph114, label %.loopexit, !llvm.loop !25

.loopexit:                                        ; preds = %.lr.ph114, %2, %59, %._crit_edge108
  %.0.lcssa129 = phi i64 [ %.2, %._crit_edge108 ], [ %.2, %59 ], [ 0, %2 ], [ %.2, %.lr.ph114 ]
  %.071.lcssa128 = phi i32 [ %58, %._crit_edge108 ], [ %58, %59 ], [ -15, %2 ], [ %58, %.lr.ph114 ]
  %.4 = phi i32 [ 1, %._crit_edge108 ], [ 33, %59 ], [ 1, %2 ], [ %64, %.lr.ph114 ]
  %66 = add nsw i32 %.4, -1
  %67 = zext nneg i32 %66 to i64
  %68 = shl nuw i64 1, %67
  %69 = add i64 %68, %.0.lcssa129
  %70 = zext nneg i32 %.4 to i64
  %71 = lshr i64 %69, %70
  %72 = trunc i64 %71 to i32
  %73 = lshr i32 %72, 1
  %74 = add nuw i32 %73, 1073741824
  %75 = icmp slt i32 %74, 1
  %76 = zext i1 %75 to i32
  %.sroa.0.0.i.i = lshr i32 %73, %76
  %.not.i.i = icmp eq i32 %.sroa.0.0.i.i, 0
  br i1 %.not.i.i, label %av_int2sf.exit, label %.preheader.i.i

.preheader.i.i:                                   ; preds = %.loopexit
  %.sroa.8.0.extract.trunc.i.v.i = select i1 %75, i32 31, i32 30
  %.neg = add i32 %.071.lcssa128, %.4
  %.sroa.8.0.extract.trunc.i.i = add i32 %.neg, %.sroa.8.0.extract.trunc.i.v.i
  %77 = icmp samesign ult i32 %.sroa.0.0.i.i, 536870912
  br i1 %77, label %.lr.ph.i.i, label %._crit_edge.i.i

.lr.ph.i.i:                                       ; preds = %.preheader.i.i, %.lr.ph.i.i
  %.sroa.0.08.i.i = phi i32 [ %78, %.lr.ph.i.i ], [ %.sroa.0.0.i.i, %.preheader.i.i ]
  %.sroa.8.07.i.i = phi i32 [ %79, %.lr.ph.i.i ], [ %.sroa.8.0.extract.trunc.i.i, %.preheader.i.i ]
  %78 = shl nuw nsw i32 %.sroa.0.08.i.i, 1
  %79 = add nsw i32 %.sroa.8.07.i.i, -1
  %80 = icmp samesign ult i32 %.sroa.0.08.i.i, 268435456
  br i1 %80, label %.lr.ph.i.i, label %._crit_edge.i.i, !llvm.loop !26

._crit_edge.i.i:                                  ; preds = %.lr.ph.i.i, %.preheader.i.i
  %.sroa.8.0.lcssa.i.i = phi i32 [ %.sroa.8.0.extract.trunc.i.i, %.preheader.i.i ], [ %79, %.lr.ph.i.i ]
  %.sroa.0.0.lcssa.i.i = phi i32 [ %.sroa.0.0.i.i, %.preheader.i.i ], [ %78, %.lr.ph.i.i ]
  %81 = icmp slt i32 %.sroa.8.0.lcssa.i.i, -149
  %spec.select.i.i = tail call i32 @llvm.smax.i32(i32 %.sroa.8.0.lcssa.i.i, i32 -149)
  %spec.select6.i.i = select i1 %81, i32 0, i32 %.sroa.0.0.lcssa.i.i
  %82 = zext i32 %spec.select.i.i to i64
  %83 = shl nuw i64 %82, 32
  %84 = zext nneg i32 %spec.select6.i.i to i64
  %85 = or disjoint i64 %83, %84
  br label %av_int2sf.exit

av_int2sf.exit:                                   ; preds = %.loopexit, %._crit_edge.i.i
  %.sroa.05.0.insert.insert.i.i = phi i64 [ %85, %._crit_edge.i.i ], [ -639950127104, %.loopexit ]
  ret i64 %.sroa.05.0.insert.insert.i.i
}